; Function Attrs: mustprogress nounwind uwtable
define void @_ZN3nix16BinaryCacheStore7getFileERKNSt7__cxx1112basic_stringIcSt11char_traitsIcESaIcEEENS_8CallbackISt8optionalIS6_EEE(ptr noundef nonnull align 8 dereferenceable(80) %0, ptr noundef nonnull align 8 dereferenceable(32) %1, ptr noundef %2) unnamed_addr #6 align 2 personality ptr @__gxx_personality_v0 {
  %4 = alloca %"class.std::optional.42", align 8
  %5 = alloca %"class.std::__exception_ptr::exception_ptr", align 8
  invoke void @_ZN3nix16BinaryCacheStore7getFileERKNSt7__cxx1112basic_stringIcSt11char_traitsIcESaIcEEE(ptr dead_on_unwind nonnull writable sret(%"class.std::optional.42") align 8 %4, ptr noundef nonnull align 8 dereferenceable(80) %0, ptr noundef nonnull align 8 dereferenceable(32) %1)
          to label %6 unwind label %17

6:                                                ; preds = %3
  call void @_ZN3nix8CallbackISt8optionalINSt7__cxx1112basic_stringIcSt11char_traitsIcESaIcEEEEEclEOS8_(ptr noundef nonnull align 8 dereferenceable(33) %2, ptr noundef nonnull align 8 dereferenceable(40) %4) #33
  %7 = getelementptr inbounds i8, ptr %4, i64 32
  %8 = load i8, ptr %7, align 8
  %9 = and i8 %8, 1
  %.not.i.i.i.i = icmp eq i8 %9, 0
  br i1 %.not.i.i.i.i, label %_ZNSt8optionalINSt7__cxx1112basic_stringIcSt11char_traitsIcESaIcEEEED2Ev.exit, label %10

10:                                               ; preds = %6
  store i8 0, ptr %7, align 8
  %11 = load ptr, ptr %4, align 8
  %12 = getelementptr inbounds i8, ptr %4, i64 16
  %13 = icmp eq ptr %11, %12
  br i1 %13, label %_ZNKSt7__cxx1112basic_stringIcSt11char_traitsIcESaIcEE11_M_is_localEv.exit.thread.i.i.i.i.i.i.i, label %_ZNKSt7__cxx1112basic_stringIcSt11char_traitsIcESaIcEE11_M_is_localEv.exit.i.i.i.i.i.i.i

_ZNKSt7__cxx1112basic_stringIcSt11char_traitsIcESaIcEE11_M_is_localEv.exit.thread.i.i.i.i.i.i.i: ; preds = %10
  %14 = getelementptr inbounds i8, ptr %4, i64 8
  %15 = load i64, ptr %14, align 8
  %16 = icmp ult i64 %15, 16
  call void @llvm.assume(i1 %16)
  br label %_ZNSt22_Optional_payload_baseINSt7__cxx1112basic_stringIcSt11char_traitsIcESaIcEEEE10_M_destroyEv.exit.i.i.i.i

_ZNKSt7__cxx1112basic_stringIcSt11char_traitsIcESaIcEE11_M_is_localEv.exit.i.i.i.i.i.i.i: ; preds = %10
  call void @_ZdlPv(ptr noundef %11) #36
  br label %_ZNSt22_Optional_payload_baseINSt7__cxx1112basic_stringIcSt11char_traitsIcESaIcEEEE10_M_destroyEv.exit.i.i.i.i

_ZNSt22_Optional_payload_baseINSt7__cxx1112basic_stringIcSt11char_traitsIcESaIcEEEE10_M_destroyEv.exit.i.i.i.i: ; preds = %_ZNKSt7__cxx1112basic_stringIcSt11char_traitsIcESaIcEE11_M_is_localEv.exit.i.i.i.i.i.i.i, %_ZNKSt7__cxx1112basic_stringIcSt11char_traitsIcESaIcEE11_M_is_localEv.exit.thread.i.i.i.i.i.i.i
  call void @_ZNSaIcED2Ev(ptr noundef nonnull align 1 dereferenceable(1) %4) #33
  br label %_ZNSt8optionalINSt7__cxx1112basic_stringIcSt11char_traitsIcESaIcEEEED2Ev.exit

17:                                               ; preds = %3
  %18 = landingpad { ptr, i32 }
          catch ptr null
  %19 = extractvalue { ptr, i32 } %18, 0
  %20 = call ptr @__cxa_begin_catch(ptr %19) #33
  call void @_ZSt17current_exceptionv(ptr dead_on_unwind nonnull writable sret(%"class.std::__exception_ptr::exception_ptr") align 8 %5) #33
  call void @_ZN3nix8CallbackISt8optionalINSt7__cxx1112basic_stringIcSt11char_traitsIcESaIcEEEEE7rethrowERKNSt15__exception_ptr13exception_ptrE(ptr noundef nonnull align 8 dereferenceable(33) %2, ptr noundef nonnull align 8 dereferenceable(8) %5) #33
  %21 = load ptr, ptr %5, align 8
  %.not.i = icmp eq ptr %21, null
  br i1 %.not.i, label %_ZNSt15__exception_ptr13exception_ptrD2Ev.exit, label %22

22:                                               ; preds = %17
  call void @_ZNSt15__exception_ptr13exception_ptr10_M_releaseEv(ptr noundef nonnull align 8 dereferenceable(8) %5) #33
  br label %_ZNSt15__exception_ptr13exception_ptrD2Ev.exit

_ZNSt15__exception_ptr13exception_ptrD2Ev.exit:   ; preds = %17, %22
  invoke void @__cxa_end_catch()
          to label %_ZNSt8optionalINSt7__cxx1112basic_stringIcSt11char_traitsIcESaIcEEEED2Ev.exit unwind label %23

_ZNSt8optionalINSt7__cxx1112basic_stringIcSt11char_traitsIcESaIcEEEED2Ev.exit: ; preds = %_ZNSt22_Optional_payload_baseINSt7__cxx1112basic_stringIcSt11char_traitsIcESaIcEEEE10_M_destroyEv.exit.i.i.i.i, %6, %_ZNSt15__exception_ptr13exception_ptrD2Ev.exit
  ret void

23:                                               ; preds = %_ZNSt15__exception_ptr13exception_ptrD2Ev.exit
  %24 = landingpad { ptr, i32 }
          catch ptr null
  %25 = extractvalue { ptr, i32 } %24, 0
  call void @__clang_call_terminate(ptr %25) #38
  unreachable
}